target datalayout = "e-m:e-p270:32:32-p271:32:32-p272:64:64-i64:64-i128:128-f80:128-n8:16:32:64-S128"
target triple = "x86_64-pc-linux-gnu"

@l_Lean_Meta_Grind_Canon_instReprShouldCanonResult___closed__2 = internal global ptr null, align 8
@l_Lean_Meta_Grind_Canon_instReprShouldCanonResult___closed__4 = internal global ptr null, align 8
@l_Lean_Meta_Grind_Canon_instReprShouldCanonResult___closed__6 = internal global ptr null, align 8
@l_Lean_Meta_Grind_Canon_instReprShouldCanonResult___closed__8 = internal global ptr null, align 8

; Function Attrs: nounwind uwtable
define ptr @l_Lean_Meta_Grind_Canon_instReprShouldCanonResult(i8 noundef zeroext %0, ptr noundef %1) #2 {
  %3 = alloca ptr, align 8
  %4 = alloca i8, align 1
  %5 = alloca ptr, align 8
  %6 = alloca ptr, align 8
  %7 = alloca ptr, align 8
  %8 = alloca ptr, align 8
  %9 = alloca ptr, align 8
  store i8 %0, ptr %4, align 1, !tbaa !12
  store ptr %1, ptr %5, align 8, !tbaa !8
  br label %10

10:                                               ; preds = %2
  %11 = load i8, ptr %4, align 1, !tbaa !12
  %12 = zext i8 %11 to i32
  switch i32 %12, label %22 [
    i32 0, label %13
    i32 1, label %16
    i32 2, label %19
  ]

13:                                               ; preds = %10
  call void @llvm.lifetime.start.p0(i64 8, ptr %6) #7
  %14 = load ptr, ptr @l_Lean_Meta_Grind_Canon_instReprShouldCanonResult___closed__2, align 8, !tbaa !8
  store ptr %14, ptr %6, align 8, !tbaa !8
  %15 = load ptr, ptr %6, align 8, !tbaa !8
  store ptr %15, ptr %3, align 8
  call void @llvm.lifetime.end.p0(i64 8, ptr %6) #7
  br label %25

16:                                               ; preds = %10
  call void @llvm.lifetime.start.p0(i64 8, ptr %7) #7
  %17 = load ptr, ptr @l_Lean_Meta_Grind_Canon_instReprShouldCanonResult___closed__4, align 8, !tbaa !8
  store ptr %17, ptr %7, align 8, !tbaa !8
  %18 = load ptr, ptr %7, align 8, !tbaa !8
  store ptr %18, ptr %3, align 8
  call void @llvm.lifetime.end.p0(i64 8, ptr %7) #7
  br label %25

19:                                               ; preds = %10
  call void @llvm.lifetime.start.p0(i64 8, ptr %8) #7
  %20 = load ptr, ptr @l_Lean_Meta_Grind_Canon_instReprShouldCanonResult___closed__6, align 8, !tbaa !8
  store ptr %20, ptr %8, align 8, !tbaa !8
  %21 = load ptr, ptr %8, align 8, !tbaa !8
  store ptr %21, ptr %3, align 8
  call void @llvm.lifetime.end.p0(i64 8, ptr %8) #7
  br label %25

22:                                               ; preds = %10
  call void @llvm.lifetime.start.p0(i64 8, ptr %9) #7
  %23 = load ptr, ptr @l_Lean_Meta_Grind_Canon_instReprShouldCanonResult___closed__8, align 8, !tbaa !8
  store ptr %23, ptr %9, align 8, !tbaa !8
  %24 = load ptr, ptr %9, align 8, !tbaa !8
  store ptr %24, ptr %3, align 8
  call void @llvm.lifetime.end.p0(i64 8, ptr %9) #7
  br label %25

25:                                               ; preds = %22, %19, %16, %13
  %26 = load ptr, ptr %3, align 8
  ret ptr %26
}