; Function Attrs: mustprogress nofree norecurse nosync nounwind willreturn memory(read, inaccessiblemem: none) uwtable
define ptr @l_Lean_Meta_Grind_Canon_instReprShouldCanonResult(i8 noundef zeroext %0, ptr noundef readnone captures(none) %1) local_unnamed_addr #5 {
  %3 = icmp ult i8 %0, 3
  br i1 %3, label %switch.lookup, label %5

switch.lookup:                                    ; preds = %2
  %4 = zext nneg i8 %0 to i64
  %switch.gep = getelementptr inbounds nuw [3 x ptr], ptr @switch.table.l_Std_Range_forIn_x27_loop___at_Lean_Meta_Grind_Canon_canonImpl_visit___spec__10___lambda__3, i64 0, i64 %4
  %switch.load = load ptr, ptr %switch.gep, align 8
  br label %5

5:                                                ; preds = %2, %switch.lookup
  %.0.in = phi ptr [ %switch.load, %switch.lookup ], [ @l_Lean_Meta_Grind_Canon_instReprShouldCanonResult___closed__8, %2 ]
  %.0 = load ptr, ptr %.0.in, align 8, !tbaa !9
  ret ptr %.0
}